ccopy_reg
_reconstructor
p1
(csrc.meta.globalstate
GlobalState
p2
c__builtin__
object
p3
NtRp4
(dp5
S'fileMap'
p6
(dp7
S'test1'
p8
g1
(cmeta.file
File
p9
g3
NtRp10
(dp11
S'size'
p12
NsS'delete'
p13
I00
sS'chunkHandles'
p14
(lp15
sS'fileName'
p16
g8
sbssS'activeHosts'
p17
(lp18
sS'toDelete'
p19
(lp20
sS'chunkHandle'
p21
I1
sS'hosts'
p22
(lp23
sS'chunkMap'
p24
(dp25
I1
g1
(cmeta.chunk
Chunk
p26
g3
NtRp27
(dp28
g21
I1
sS'chunkserverLocations'
p29
(lp30
sS'offset'
p31
I0
sbssb.